target datalayout = "e-m:e-p270:32:32-p271:32:32-p272:64:64-i64:64-i128:128-f80:128-n8:16:32:64-S128"
target triple = "x86_64-pc-linux-gnu"

@proto_register_sbc.ett = internal global [2 x ptr] [ptr @ett_sbc, ptr @ett_sbc_list], align 16
@.str.46 = private unnamed_addr constant [20 x i8] c"Bluetooth SBC Codec\00", align 1
@.str.47 = private unnamed_addr constant [4 x i8] c"SBC\00", align 1
@.str.48 = private unnamed_addr constant [4 x i8] c"sbc\00", align 1
@proto_sbc = internal global i32 0, align 4
@.str.49 = private unnamed_addr constant [10 x i8] c"Bluetooth\00", align 1
@.str.50 = private unnamed_addr constant [13 x i8] c"a2dp.version\00", align 1
@.str.51 = private unnamed_addr constant [52 x i8] c"Bluetooth Audio Codec SBC version based on A2DP 1.3\00", align 1
@.str.52 = private unnamed_addr constant [46 x i8] c"Version of codec supported by this dissector.\00", align 1

; Function Attrs: null_pointer_is_valid sspstrong uwtable
define hidden void @proto_register_sbc() #0 {
  %1 = alloca ptr, align 8
  %2 = alloca ptr, align 8
  call void @llvm.lifetime.start.p0(i64 8, ptr %1) #4
  call void @llvm.lifetime.start.p0(i64 8, ptr %2) #4
  %3 = call i32 @proto_register_protocol(ptr noundef @.str.46, ptr noundef @.str.47, ptr noundef @.str.48)
  store i32 %3, ptr @proto_sbc, align 4
  %4 = load i32, ptr @proto_sbc, align 4
  call void @proto_register_field_array(i32 noundef %4, ptr noundef @proto_register_sbc.hf, i32 noundef 22)
  call void @proto_register_subtree_array(ptr noundef @proto_register_sbc.ett, i32 noundef 2)
  %5 = load i32, ptr @proto_sbc, align 4
  %6 = call ptr @expert_register_protocol(i32 noundef %5)
  store ptr %6, ptr %2, align 8
  %7 = load ptr, ptr %2, align 8
  call void @expert_register_field_array(ptr noundef %7, ptr noundef @proto_register_sbc.ei, i32 noundef 1)
  %8 = load i32, ptr @proto_sbc, align 4
  %9 = call ptr @register_dissector(ptr noundef @.str.48, ptr noundef @dissect_sbc, i32 noundef %8)
  %10 = load i32, ptr @proto_sbc, align 4
  %11 = call ptr @prefs_register_protocol_subtree(ptr noundef @.str.49, i32 noundef %10, ptr noundef null)
  store ptr %11, ptr %1, align 8
  %12 = load ptr, ptr %1, align 8
  call void @prefs_register_static_text_preference(ptr noundef %12, ptr noundef @.str.50, ptr noundef @.str.51, ptr noundef @.str.52)
  call void @llvm.lifetime.end.p0(i64 8, ptr %2) #4
  call void @llvm.lifetime.end.p0(i64 8, ptr %1) #4
  ret void
}