; Function Attrs: null_pointer_is_valid sspstrong uwtable
define hidden void @proto_register_sbc() local_unnamed_addr #0 {
  %1 = tail call i32 @proto_register_protocol(ptr noundef nonnull @.str.46, ptr noundef nonnull @.str.47, ptr noundef nonnull @.str.48)
  store i32 %1, ptr @proto_sbc, align 4
  tail call void @proto_register_field_array(i32 noundef %1, ptr noundef nonnull @proto_register_sbc.hf, i32 noundef 22)
  tail call void @proto_register_subtree_array(ptr noundef nonnull @proto_register_sbc.ett, i32 noundef 2)
  %2 = load i32, ptr @proto_sbc, align 4
  %3 = tail call ptr @expert_register_protocol(i32 noundef %2)
  tail call void @expert_register_field_array(ptr noundef %3, ptr noundef nonnull @proto_register_sbc.ei, i32 noundef 1)
  %4 = load i32, ptr @proto_sbc, align 4
  %5 = tail call ptr @register_dissector(ptr noundef nonnull @.str.48, ptr noundef nonnull @dissect_sbc, i32 noundef %4)
  %6 = load i32, ptr @proto_sbc, align 4
  %7 = tail call ptr @prefs_register_protocol_subtree(ptr noundef nonnull @.str.49, i32 noundef %6, ptr noundef null)
  tail call void @prefs_register_static_text_preference(ptr noundef %7, ptr noundef nonnull @.str.50, ptr noundef nonnull @.str.51, ptr noundef nonnull @.str.52)
  ret void
}